target datalayout = "e-m:e-p270:32:32-p271:32:32-p272:64:64-i64:64-i128:128-f80:128-n8:16:32:64-S128"
target triple = "x86_64-pc-linux-gnu"

%struct.TS_verify_ctx = type { i32, ptr, ptr, ptr, ptr, ptr, i32, ptr, ptr, ptr }

@.str = private unnamed_addr constant [37 x i8] c"../openssl/crypto/ts/ts_verify_ctx.c\00", align 1
@.str.1 = private unnamed_addr constant [30 x i8] c"assertion failed: ctx != NULL\00", align 1

; Function Attrs: nounwind uwtable
define void @TS_VERIFY_CTX_init(ptr noundef %0) #0 {
  %2 = alloca ptr, align 8
  store ptr %0, ptr %2, align 8, !tbaa !3
  %3 = load ptr, ptr %2, align 8, !tbaa !3
  %4 = icmp ne ptr %3, null
  br i1 %4, label %5, label %6

5:                                                ; preds = %1
  br label %8

6:                                                ; preds = %1
  call void @OPENSSL_die(ptr noundef @.str.1, ptr noundef @.str, i32 noundef 24) #7
  unreachable

7:                                                ; No predecessors!
  br label %8

8:                                                ; preds = %7, %5
  %9 = load ptr, ptr %2, align 8, !tbaa !3
  call void @llvm.memset.p0.i64(ptr align 8 %9, i8 0, i64 80, i1 false)
  ret void
}

; Function Attrs: nounwind uwtable
define void @TS_VERIFY_CTX_cleanup(ptr noundef %0) #0 {
  %2 = alloca ptr, align 8
  store ptr %0, ptr %2, align 8, !tbaa !3
  %3 = load ptr, ptr %2, align 8, !tbaa !3
  %4 = icmp ne ptr %3, null
  br i1 %4, label %6, label %5

5:                                                ; preds = %1
  br label %32

6:                                                ; preds = %1
  %7 = load ptr, ptr %2, align 8, !tbaa !3
  %8 = getelementptr inbounds nuw %struct.TS_verify_ctx, ptr %7, i32 0, i32 1
  %9 = load ptr, ptr %8, align 8, !tbaa !8
  call void @X509_STORE_free(ptr noundef %9)
  %10 = load ptr, ptr %2, align 8, !tbaa !3
  %11 = getelementptr inbounds nuw %struct.TS_verify_ctx, ptr %10, i32 0, i32 2
  %12 = load ptr, ptr %11, align 8, !tbaa !19
  call void @OSSL_STACK_OF_X509_free(ptr noundef %12)
  %13 = load ptr, ptr %2, align 8, !tbaa !3
  %14 = getelementptr inbounds nuw %struct.TS_verify_ctx, ptr %13, i32 0, i32 3
  %15 = load ptr, ptr %14, align 8, !tbaa !20
  call void @ASN1_OBJECT_free(ptr noundef %15)
  %16 = load ptr, ptr %2, align 8, !tbaa !3
  %17 = getelementptr inbounds nuw %struct.TS_verify_ctx, ptr %16, i32 0, i32 4
  %18 = load ptr, ptr %17, align 8, !tbaa !21
  call void @X509_ALGOR_free(ptr noundef %18)
  %19 = load ptr, ptr %2, align 8, !tbaa !3
  %20 = getelementptr inbounds nuw %struct.TS_verify_ctx, ptr %19, i32 0, i32 5
  %21 = load ptr, ptr %20, align 8, !tbaa !22
  call void @CRYPTO_free(ptr noundef %21, ptr noundef @.str, i32 noundef 126)
  %22 = load ptr, ptr %2, align 8, !tbaa !3
  %23 = getelementptr inbounds nuw %struct.TS_verify_ctx, ptr %22, i32 0, i32 7
  %24 = load ptr, ptr %23, align 8, !tbaa !23
  call void @BIO_free_all(ptr noundef %24)
  %25 = load ptr, ptr %2, align 8, !tbaa !3
  %26 = getelementptr inbounds nuw %struct.TS_verify_ctx, ptr %25, i32 0, i32 8
  %27 = load ptr, ptr %26, align 8, !tbaa !24
  call void @ASN1_INTEGER_free(ptr noundef %27)
  %28 = load ptr, ptr %2, align 8, !tbaa !3
  %29 = getelementptr inbounds nuw %struct.TS_verify_ctx, ptr %28, i32 0, i32 9
  %30 = load ptr, ptr %29, align 8, !tbaa !25
  call void @GENERAL_NAME_free(ptr noundef %30)
  %31 = load ptr, ptr %2, align 8, !tbaa !3
  call void @TS_VERIFY_CTX_init(ptr noundef %31)
  br label %32

32:                                               ; preds = %6, %5
  ret void
}